target datalayout = "e-m:e-p270:32:32-p271:32:32-p272:64:64-i64:64-i128:128-f80:128-n8:16:32:64-S128"
target triple = "x86_64-pc-linux-gnu"

%struct.SDL_Renderer = type { ptr, ptr, ptr, ptr, ptr, ptr, ptr, ptr, ptr, ptr, ptr, ptr, ptr, ptr, ptr, ptr, ptr, ptr, ptr, ptr, ptr, ptr, ptr, ptr, ptr, ptr, ptr, ptr, ptr, ptr, i32, i8, ptr, i8, i8, i8, i64, i64, ptr, %struct.SDL_RenderViewState, %struct.SDL_FPoint, i32, i32, ptr, ptr, ptr, i32, float, float, float, float, %struct.SDL_FColor, i32, i32, i32, ptr, ptr, ptr, ptr, i32, %struct.SDL_FColor, float, %struct.SDL_Rect, %struct.SDL_Rect, i8, i8, i8, i8, ptr, i64, i64, i8, ptr, ptr, i32, ptr, i8, ptr, ptr }
%struct.SDL_RenderViewState = type { i32, i32, %struct.SDL_Rect, %struct.SDL_Rect, %struct.SDL_Rect, %struct.SDL_Rect, i8, %struct.SDL_FPoint, i32, i32, i32, %struct.SDL_FRect, %struct.SDL_FRect, %struct.SDL_FPoint, %struct.SDL_FPoint, %struct.SDL_FPoint }
%struct.SDL_FRect = type { float, float, float, float }
%struct.SDL_FPoint = type { float, float }
%struct.SDL_FColor = type { float, float, float, float }
%struct.SDL_Rect = type { i32, i32, i32, i32 }
%struct.GLES2_RenderData = type { ptr, i8, i8, i8, ptr, ptr, ptr, ptr, ptr, ptr, ptr, ptr, ptr, ptr, ptr, ptr, ptr, ptr, ptr, ptr, ptr, ptr, ptr, ptr, ptr, ptr, ptr, ptr, ptr, ptr, ptr, ptr, ptr, ptr, ptr, ptr, ptr, ptr, ptr, ptr, ptr, ptr, ptr, ptr, ptr, ptr, ptr, ptr, ptr, ptr, ptr, ptr, ptr, ptr, ptr, ptr, ptr, ptr, ptr, ptr, ptr, ptr, i32, [16 x i32], %struct.GLES2_ProgramCache, i8, i8, i8, i8, %struct.GLES2_DrawStateCache, i32 }
%struct.GLES2_ProgramCache = type { i32, ptr, ptr }
%struct.GLES2_DrawStateCache = type { %struct.SDL_Rect, i8, ptr, ptr, i32, i8, i8, i8, %struct.SDL_Rect, i8, i8, %struct.SDL_FColor, i8, i32, i32, ptr, ptr, [4 x [4 x float]] }
%struct.GLES2_FBOList = type { i32, i32, i32, ptr }
%struct.GLES2_ProgramCacheEntry = type { i32, i32, i32, [7 x i32], [4 x [4 x float]], ptr, ptr, ptr }

@.str.5 = private unnamed_addr constant [1 x i8] zeroinitializer, align 1
@.str.6 = private unnamed_addr constant [125 x i8] c"generated/home/dtcxzyw/WorkSpace/Projects/compilers/llvm-opt-benchmark/bench/sdl/SDL/src/render/opengles2/SDL_render_gles2.c\00", align 1
@__func__.GLES2_DestroyRenderer = private unnamed_addr constant [22 x i8] c"GLES2_DestroyRenderer\00", align 1
@.str.101 = private unnamed_addr constant [8 x i8] c"generic\00", align 1
@.str.102 = private unnamed_addr constant [26 x i8] c"%s: %s (%d): %s %s (0x%X)\00", align 1
@.str.103 = private unnamed_addr constant [16 x i8] c"GL_INVALID_ENUM\00", align 1
@.str.104 = private unnamed_addr constant [17 x i8] c"GL_INVALID_VALUE\00", align 1
@.str.105 = private unnamed_addr constant [21 x i8] c"GL_INVALID_OPERATION\00", align 1
@.str.106 = private unnamed_addr constant [17 x i8] c"GL_OUT_OF_MEMORY\00", align 1
@.str.107 = private unnamed_addr constant [12 x i8] c"GL_NO_ERROR\00", align 1
@.str.108 = private unnamed_addr constant [8 x i8] c"UNKNOWN\00", align 1

; Function Attrs: nounwind uwtable
define internal ptr @GL_TranslateError(i32 noundef %0) #0 {
  %2 = alloca ptr, align 8
  %3 = alloca i32, align 4
  store i32 %0, ptr %3, align 4
  %4 = load i32, ptr %3, align 4
  switch i32 %4, label %10 [
    i32 1280, label %5
    i32 1281, label %6
    i32 1282, label %7
    i32 1285, label %8
    i32 0, label %9
  ]

5:                                                ; preds = %1
  store ptr @.str.103, ptr %2, align 8
  br label %11

6:                                                ; preds = %1
  store ptr @.str.104, ptr %2, align 8
  br label %11

7:                                                ; preds = %1
  store ptr @.str.105, ptr %2, align 8
  br label %11

8:                                                ; preds = %1
  store ptr @.str.106, ptr %2, align 8
  br label %11

9:                                                ; preds = %1
  store ptr @.str.107, ptr %2, align 8
  br label %11

10:                                               ; preds = %1
  store ptr @.str.108, ptr %2, align 8
  br label %11

11:                                               ; preds = %10, %9, %8, %7, %6, %5
  %12 = load ptr, ptr %2, align 8
  ret ptr %12
}

; Function Attrs: nounwind uwtable
define internal void @GL_ClearErrors(ptr noundef %0) #0 {
  %2 = alloca ptr, align 8
  %3 = alloca ptr, align 8
  %4 = alloca i32, align 4
  store ptr %0, ptr %2, align 8
  call void @llvm.lifetime.start.p0(i64 8, ptr %3) #6
  %5 = load ptr, ptr %2, align 8
  %6 = getelementptr inbounds nuw %struct.SDL_Renderer, ptr %5, i32 0, i32 77
  %7 = load ptr, ptr %6, align 8
  store ptr %7, ptr %3, align 8
  %8 = load ptr, ptr %3, align 8
  %9 = getelementptr inbounds nuw %struct.GLES2_RenderData, ptr %8, i32 0, i32 1
  %10 = load i8, ptr %9, align 8, !range !3, !noundef !4
  %11 = trunc i8 %10 to i1
  br i1 %11, label %13, label %12

12:                                               ; preds = %1
  store i32 1, ptr %4, align 4
  br label %22

13:                                               ; preds = %1
  br label %14

14:                                               ; preds = %20, %13
  %15 = load ptr, ptr %3, align 8
  %16 = getelementptr inbounds nuw %struct.GLES2_RenderData, ptr %15, i32 0, i32 27
  %17 = load ptr, ptr %16, align 8
  %18 = call i32 %17()
  %19 = icmp ne i32 %18, 0
  br i1 %19, label %20, label %21

20:                                               ; preds = %14
  br label %14, !llvm.loop !19

21:                                               ; preds = %14
  store i32 0, ptr %4, align 4
  br label %22

22:                                               ; preds = %21, %12
  call void @llvm.lifetime.end.p0(i64 8, ptr %3) #6
  %23 = load i32, ptr %4, align 4
  switch i32 %23, label %25 [
    i32 0, label %24
    i32 1, label %24
  ]

24:                                               ; preds = %22, %22
  ret void

25:                                               ; preds = %22
  unreachable
}

; Function Attrs: nounwind uwtable
define internal zeroext i1 @GL_CheckAllErrors(ptr noundef %0, ptr noundef %1, ptr noundef %2, i32 noundef %3, ptr noundef %4) #0 {
  %6 = alloca i1, align 1
  %7 = alloca ptr, align 8
  %8 = alloca ptr, align 8
  %9 = alloca ptr, align 8
  %10 = alloca i32, align 4
  %11 = alloca ptr, align 8
  %12 = alloca ptr, align 8
  %13 = alloca i8, align 1
  %14 = alloca i32, align 4
  %15 = alloca i32, align 4
  store ptr %0, ptr %7, align 8
  store ptr %1, ptr %8, align 8
  store ptr %2, ptr %9, align 8
  store i32 %3, ptr %10, align 4
  store ptr %4, ptr %11, align 8
  call void @llvm.lifetime.start.p0(i64 8, ptr %12) #6
  %16 = load ptr, ptr %8, align 8
  %17 = getelementptr inbounds nuw %struct.SDL_Renderer, ptr %16, i32 0, i32 77
  %18 = load ptr, ptr %17, align 8
  store ptr %18, ptr %12, align 8
  call void @llvm.lifetime.start.p0(i64 1, ptr %13) #6
  store i8 1, ptr %13, align 1
  %19 = load ptr, ptr %12, align 8
  %20 = getelementptr inbounds nuw %struct.GLES2_RenderData, ptr %19, i32 0, i32 1
  %21 = load i8, ptr %20, align 8, !range !3, !noundef !4
  %22 = trunc i8 %21 to i1
  br i1 %22, label %24, label %23

23:                                               ; preds = %5
  store i1 true, ptr %6, align 1
  store i32 1, ptr %14, align 4
  br label %59

24:                                               ; preds = %5
  br label %25

25:                                               ; preds = %55, %24
  call void @llvm.lifetime.start.p0(i64 4, ptr %15) #6
  %26 = load ptr, ptr %12, align 8
  %27 = getelementptr inbounds nuw %struct.GLES2_RenderData, ptr %26, i32 0, i32 27
  %28 = load ptr, ptr %27, align 8
  %29 = call i32 %28()
  store i32 %29, ptr %15, align 4
  %30 = load i32, ptr %15, align 4
  %31 = icmp ne i32 %30, 0
  br i1 %31, label %32, label %51

32:                                               ; preds = %25
  %33 = load ptr, ptr %7, align 8
  %34 = icmp ne ptr %33, null
  br i1 %34, label %35, label %41

35:                                               ; preds = %32
  %36 = load ptr, ptr %7, align 8
  %37 = getelementptr inbounds i8, ptr %36, i64 0
  %38 = load i8, ptr %37, align 1
  %39 = sext i8 %38 to i32
  %40 = icmp eq i32 %39, 0
  br i1 %40, label %41, label %42

41:                                               ; preds = %35, %32
  store ptr @.str.101, ptr %7, align 8
  br label %42

42:                                               ; preds = %41, %35
  %43 = load ptr, ptr %7, align 8
  %44 = load ptr, ptr %9, align 8
  %45 = load i32, ptr %10, align 4
  %46 = load ptr, ptr %11, align 8
  %47 = load i32, ptr %15, align 4
  %48 = call ptr @GL_TranslateError(i32 noundef %47)
  %49 = load i32, ptr %15, align 4
  %50 = call zeroext i1 (ptr, ...) @SDL_SetError_REAL(ptr noundef @.str.102, ptr noundef %43, ptr noundef %44, i32 noundef %45, ptr noundef %46, ptr noundef %48, i32 noundef %49)
  store i8 0, ptr %13, align 1
  br label %52

51:                                               ; preds = %25
  store i32 2, ptr %14, align 4
  br label %53

52:                                               ; preds = %42
  store i32 0, ptr %14, align 4
  br label %53

53:                                               ; preds = %52, %51
  call void @llvm.lifetime.end.p0(i64 4, ptr %15) #6
  %54 = load i32, ptr %14, align 4
  switch i32 %54, label %61 [
    i32 0, label %55
    i32 2, label %56
  ]

55:                                               ; preds = %53
  br label %25

56:                                               ; preds = %53
  %57 = load i8, ptr %13, align 1, !range !3, !noundef !4
  %58 = trunc i8 %57 to i1
  store i1 %58, ptr %6, align 1
  store i32 1, ptr %14, align 4
  br label %59

59:                                               ; preds = %56, %23
  call void @llvm.lifetime.end.p0(i64 1, ptr %13) #6
  call void @llvm.lifetime.end.p0(i64 8, ptr %12) #6
  %60 = load i1, ptr %6, align 1
  ret i1 %60

61:                                               ; preds = %53
  unreachable
}

; Function Attrs: nounwind uwtable
define internal zeroext i1 @GLES2_ActivateRenderer(ptr noundef %0) #0 {
  %2 = alloca i1, align 1
  %3 = alloca ptr, align 8
  %4 = alloca ptr, align 8
  %5 = alloca i32, align 4
  store ptr %0, ptr %3, align 8
  call void @llvm.lifetime.start.p0(i64 8, ptr %4) #6
  %6 = load ptr, ptr %3, align 8
  %7 = getelementptr inbounds nuw %struct.SDL_Renderer, ptr %6, i32 0, i32 77
  %8 = load ptr, ptr %7, align 8
  store ptr %8, ptr %4, align 8
  %9 = call ptr @SDL_GL_GetCurrentContext_REAL()
  %10 = load ptr, ptr %4, align 8
  %11 = getelementptr inbounds nuw %struct.GLES2_RenderData, ptr %10, i32 0, i32 0
  %12 = load ptr, ptr %11, align 8
  %13 = icmp ne ptr %9, %12
  br i1 %13, label %14, label %27

14:                                               ; preds = %1
  %15 = load ptr, ptr %4, align 8
  %16 = getelementptr inbounds nuw %struct.GLES2_RenderData, ptr %15, i32 0, i32 69
  %17 = getelementptr inbounds nuw %struct.GLES2_DrawStateCache, ptr %16, i32 0, i32 15
  store ptr null, ptr %17, align 8
  %18 = load ptr, ptr %3, align 8
  %19 = getelementptr inbounds nuw %struct.SDL_Renderer, ptr %18, i32 0, i32 32
  %20 = load ptr, ptr %19, align 8
  %21 = load ptr, ptr %4, align 8
  %22 = getelementptr inbounds nuw %struct.GLES2_RenderData, ptr %21, i32 0, i32 0
  %23 = load ptr, ptr %22, align 8
  %24 = call zeroext i1 @SDL_GL_MakeCurrent_REAL(ptr noundef %20, ptr noundef %23)
  br i1 %24, label %26, label %25

25:                                               ; preds = %14
  store i1 false, ptr %2, align 1
  store i32 1, ptr %5, align 4
  br label %29

26:                                               ; preds = %14
  br label %27

27:                                               ; preds = %26, %1
  %28 = load ptr, ptr %3, align 8
  call void @GL_ClearErrors(ptr noundef %28)
  store i1 true, ptr %2, align 1
  store i32 1, ptr %5, align 4
  br label %29

29:                                               ; preds = %27, %25
  call void @llvm.lifetime.end.p0(i64 8, ptr %4) #6
  %30 = load i1, ptr %2, align 1
  ret i1 %30
}

; Function Attrs: nounwind uwtable
define internal void @GLES2_DestroyRenderer(ptr noundef %0) #0 {
  %2 = alloca ptr, align 8
  %3 = alloca ptr, align 8
  %4 = alloca i32, align 4
  %5 = alloca i32, align 4
  %6 = alloca ptr, align 8
  %7 = alloca ptr, align 8
  %8 = alloca ptr, align 8
  store ptr %0, ptr %2, align 8
  call void @llvm.lifetime.start.p0(i64 8, ptr %3) #6
  %9 = load ptr, ptr %2, align 8
  %10 = getelementptr inbounds nuw %struct.SDL_Renderer, ptr %9, i32 0, i32 77
  %11 = load ptr, ptr %10, align 8
  store ptr %11, ptr %3, align 8
  %12 = load ptr, ptr %3, align 8
  %13 = icmp ne ptr %12, null
  br i1 %13, label %14, label %97

14:                                               ; preds = %1
  %15 = load ptr, ptr %2, align 8
  %16 = call zeroext i1 @GLES2_ActivateRenderer(ptr noundef %15)
  call void @llvm.lifetime.start.p0(i64 4, ptr %4) #6
  store i32 0, ptr %4, align 4
  br label %17

17:                                               ; preds = %35, %14
  %18 = load i32, ptr %4, align 4
  %19 = icmp slt i32 %18, 16
  br i1 %19, label %20, label %38

20:                                               ; preds = %17
  call void @llvm.lifetime.start.p0(i64 4, ptr %5) #6
  %21 = load ptr, ptr %3, align 8
  %22 = getelementptr inbounds nuw %struct.GLES2_RenderData, ptr %21, i32 0, i32 63
  %23 = load i32, ptr %4, align 4
  %24 = sext i32 %23 to i64
  %25 = getelementptr inbounds [16 x i32], ptr %22, i64 0, i64 %24
  %26 = load i32, ptr %25, align 4
  store i32 %26, ptr %5, align 4
  %27 = load i32, ptr %5, align 4
  %28 = icmp ne i32 %27, 0
  br i1 %28, label %29, label %34

29:                                               ; preds = %20
  %30 = load ptr, ptr %3, align 8
  %31 = getelementptr inbounds nuw %struct.GLES2_RenderData, ptr %30, i32 0, i32 16
  %32 = load ptr, ptr %31, align 8
  %33 = load i32, ptr %5, align 4
  call void %32(i32 noundef %33)
  br label %34

34:                                               ; preds = %29, %20
  call void @llvm.lifetime.end.p0(i64 4, ptr %5) #6
  br label %35

35:                                               ; preds = %34
  %36 = load i32, ptr %4, align 4
  %37 = add nsw i32 %36, 1
  store i32 %37, ptr %4, align 4
  br label %17, !llvm.loop !14

38:                                               ; preds = %17
  call void @llvm.lifetime.end.p0(i64 4, ptr %4) #6
  call void @llvm.lifetime.start.p0(i64 8, ptr %6) #6
  call void @llvm.lifetime.start.p0(i64 8, ptr %7) #6
  %39 = load ptr, ptr %3, align 8
  %40 = getelementptr inbounds nuw %struct.GLES2_RenderData, ptr %39, i32 0, i32 64
  %41 = getelementptr inbounds nuw %struct.GLES2_ProgramCache, ptr %40, i32 0, i32 1
  %42 = load ptr, ptr %41, align 8
  store ptr %42, ptr %6, align 8
  br label %43

43:                                               ; preds = %46, %38
  %44 = load ptr, ptr %6, align 8
  %45 = icmp ne ptr %44, null
  br i1 %45, label %46, label %58

46:                                               ; preds = %43
  %47 = load ptr, ptr %3, align 8
  %48 = getelementptr inbounds nuw %struct.GLES2_RenderData, ptr %47, i32 0, i32 15
  %49 = load ptr, ptr %48, align 8
  %50 = load ptr, ptr %6, align 8
  %51 = getelementptr inbounds nuw %struct.GLES2_ProgramCacheEntry, ptr %50, i32 0, i32 0
  %52 = load i32, ptr %51, align 8
  call void %49(i32 noundef %52)
  %53 = load ptr, ptr %6, align 8
  %54 = getelementptr inbounds nuw %struct.GLES2_ProgramCacheEntry, ptr %53, i32 0, i32 7
  %55 = load ptr, ptr %54, align 8
  store ptr %55, ptr %7, align 8
  %56 = load ptr, ptr %6, align 8
  call void @SDL_free_REAL(ptr noundef %56)
  %57 = load ptr, ptr %7, align 8
  store ptr %57, ptr %6, align 8
  br label %43, !llvm.loop !15

58:                                               ; preds = %43
  call void @llvm.lifetime.end.p0(i64 8, ptr %7) #6
  call void @llvm.lifetime.end.p0(i64 8, ptr %6) #6
  %59 = load ptr, ptr %3, align 8
  %60 = getelementptr inbounds nuw %struct.GLES2_RenderData, ptr %59, i32 0, i32 0
  %61 = load ptr, ptr %60, align 8
  %62 = icmp ne ptr %61, null
  br i1 %62, label %63, label %95

63:                                               ; preds = %58
  br label %64

64:                                               ; preds = %69, %63
  %65 = load ptr, ptr %3, align 8
  %66 = getelementptr inbounds nuw %struct.GLES2_RenderData, ptr %65, i32 0, i32 61
  %67 = load ptr, ptr %66, align 8
  %68 = icmp ne ptr %67, null
  br i1 %68, label %69, label %90

69:                                               ; preds = %64
  call void @llvm.lifetime.start.p0(i64 8, ptr %8) #6
  %70 = load ptr, ptr %3, align 8
  %71 = getelementptr inbounds nuw %struct.GLES2_RenderData, ptr %70, i32 0, i32 61
  %72 = load ptr, ptr %71, align 8
  %73 = getelementptr inbounds nuw %struct.GLES2_FBOList, ptr %72, i32 0, i32 3
  %74 = load ptr, ptr %73, align 8
  store ptr %74, ptr %8, align 8
  %75 = load ptr, ptr %3, align 8
  %76 = getelementptr inbounds nuw %struct.GLES2_RenderData, ptr %75, i32 0, i32 53
  %77 = load ptr, ptr %76, align 8
  %78 = load ptr, ptr %3, align 8
  %79 = getelementptr inbounds nuw %struct.GLES2_RenderData, ptr %78, i32 0, i32 61
  %80 = load ptr, ptr %79, align 8
  %81 = getelementptr inbounds nuw %struct.GLES2_FBOList, ptr %80, i32 0, i32 2
  call void %77(i32 noundef 1, ptr noundef %81)
  %82 = load ptr, ptr %2, align 8
  %83 = call zeroext i1 @GL_CheckAllErrors(ptr noundef @.str.5, ptr noundef %82, ptr noundef @.str.6, i32 noundef 1578, ptr noundef @__func__.GLES2_DestroyRenderer)
  %84 = load ptr, ptr %3, align 8
  %85 = getelementptr inbounds nuw %struct.GLES2_RenderData, ptr %84, i32 0, i32 61
  %86 = load ptr, ptr %85, align 8
  call void @SDL_free_REAL(ptr noundef %86)
  %87 = load ptr, ptr %8, align 8
  %88 = load ptr, ptr %3, align 8
  %89 = getelementptr inbounds nuw %struct.GLES2_RenderData, ptr %88, i32 0, i32 61
  store ptr %87, ptr %89, align 8
  call void @llvm.lifetime.end.p0(i64 8, ptr %8) #6
  br label %64, !llvm.loop !16

90:                                               ; preds = %64
  %91 = load ptr, ptr %3, align 8
  %92 = getelementptr inbounds nuw %struct.GLES2_RenderData, ptr %91, i32 0, i32 0
  %93 = load ptr, ptr %92, align 8
  %94 = call zeroext i1 @SDL_GL_DestroyContext_REAL(ptr noundef %93)
  br label %95

95:                                               ; preds = %90, %58
  %96 = load ptr, ptr %3, align 8
  call void @SDL_free_REAL(ptr noundef %96)
  br label %97

97:                                               ; preds = %95, %1
  call void @llvm.lifetime.end.p0(i64 8, ptr %3) #6
  ret void
}