; Function Attrs: nounwind uwtable
define internal void @GLES2_DestroyRenderer(ptr noundef readonly captures(none) %0) #0 {
  %2 = getelementptr inbounds nuw i8, ptr %0, i64 696
  %3 = load ptr, ptr %2, align 8
  %.not = icmp eq ptr %3, null
  br i1 %.not, label %66, label %4

4:                                                ; preds = %1
  %5 = tail call ptr @SDL_GL_GetCurrentContext_REAL() #10
  %6 = load ptr, ptr %3, align 8
  %.not.i = icmp eq ptr %5, %6
  br i1 %.not.i, label %12, label %7

7:                                                ; preds = %4
  %8 = getelementptr inbounds nuw i8, ptr %3, i64 680
  store ptr null, ptr %8, align 8
  %9 = getelementptr inbounds nuw i8, ptr %0, i64 248
  %10 = load ptr, ptr %9, align 8
  %11 = tail call zeroext i1 @SDL_GL_MakeCurrent_REAL(ptr noundef %10, ptr noundef %6) #10
  br i1 %11, label %12, label %GLES2_ActivateRenderer.exit

12:                                               ; preds = %7, %4
  %.val.i = load ptr, ptr %2, align 8
  %13 = getelementptr inbounds nuw i8, ptr %.val.i, i64 8
  %14 = load i8, ptr %13, align 8, !range !5, !noundef !6
  %15 = trunc nuw i8 %14 to i1
  br i1 %15, label %.preheader.i.i, label %GLES2_ActivateRenderer.exit

.preheader.i.i:                                   ; preds = %12
  %16 = getelementptr inbounds nuw i8, ptr %.val.i, i64 200
  br label %17

17:                                               ; preds = %17, %.preheader.i.i
  %18 = load ptr, ptr %16, align 8
  %19 = tail call i32 %18() #10
  %.not.i.i = icmp eq i32 %19, 0
  br i1 %.not.i.i, label %GLES2_ActivateRenderer.exit, label %17, !llvm.loop !7

GLES2_ActivateRenderer.exit:                      ; preds = %17, %7, %12
  %20 = getelementptr inbounds nuw i8, ptr %3, i64 484
  %21 = getelementptr inbounds nuw i8, ptr %3, i64 112
  br label %22

22:                                               ; preds = %GLES2_ActivateRenderer.exit, %27
  %indvars.iv = phi i64 [ 0, %GLES2_ActivateRenderer.exit ], [ %indvars.iv.next, %27 ]
  %23 = getelementptr inbounds nuw [16 x i32], ptr %20, i64 0, i64 %indvars.iv
  %24 = load i32, ptr %23, align 4
  %.not34 = icmp eq i32 %24, 0
  br i1 %.not34, label %27, label %25

25:                                               ; preds = %22
  %26 = load ptr, ptr %21, align 8
  tail call void %26(i32 noundef %24) #10
  br label %27

27:                                               ; preds = %25, %22
  %indvars.iv.next = add nuw nsw i64 %indvars.iv, 1
  %exitcond.not = icmp eq i64 %indvars.iv.next, 16
  br i1 %exitcond.not, label %28, label %22, !llvm.loop !15

28:                                               ; preds = %27
  %29 = getelementptr inbounds nuw i8, ptr %3, i64 560
  %30 = load ptr, ptr %29, align 8
  %.not3138 = icmp eq ptr %30, null
  br i1 %.not3138, label %._crit_edge, label %.lr.ph

.lr.ph:                                           ; preds = %28
  %31 = getelementptr inbounds nuw i8, ptr %3, i64 104
  br label %32

32:                                               ; preds = %.lr.ph, %32
  %.02739 = phi ptr [ %30, %.lr.ph ], [ %36, %32 ]
  %33 = load ptr, ptr %31, align 8
  %34 = load i32, ptr %.02739, align 8
  tail call void %33(i32 noundef %34) #10
  %35 = getelementptr inbounds nuw i8, ptr %.02739, i64 120
  %36 = load ptr, ptr %35, align 8
  tail call void @SDL_free_REAL(ptr noundef nonnull %.02739) #10
  %.not31 = icmp eq ptr %36, null
  br i1 %.not31, label %._crit_edge, label %32, !llvm.loop !16

._crit_edge:                                      ; preds = %32, %28
  %37 = load ptr, ptr %3, align 8
  %.not32 = icmp eq ptr %37, null
  br i1 %.not32, label %65, label %.preheader

.preheader:                                       ; preds = %._crit_edge
  %38 = getelementptr inbounds nuw i8, ptr %3, i64 472
  %39 = load ptr, ptr %38, align 8
  %.not3340 = icmp eq ptr %39, null
  br i1 %.not3340, label %._crit_edge42, label %.lr.ph41

.lr.ph41:                                         ; preds = %.preheader
  %40 = getelementptr inbounds nuw i8, ptr %3, i64 408
  br label %41

41:                                               ; preds = %.lr.ph41, %GL_CheckAllErrors.exit
  %42 = phi ptr [ %39, %.lr.ph41 ], [ %44, %GL_CheckAllErrors.exit ]
  %43 = getelementptr inbounds nuw i8, ptr %42, i64 16
  %44 = load ptr, ptr %43, align 8
  %45 = load ptr, ptr %40, align 8
  %46 = getelementptr inbounds nuw i8, ptr %42, i64 8
  tail call void %45(i32 noundef 1, ptr noundef nonnull %46) #10
  %.val = load ptr, ptr %2, align 8
  %47 = getelementptr inbounds nuw i8, ptr %.val, i64 8
  %48 = load i8, ptr %47, align 8, !range !5, !noundef !6
  %49 = trunc nuw i8 %48 to i1
  br i1 %49, label %.preheader.i, label %GL_CheckAllErrors.exit

.preheader.i:                                     ; preds = %41
  %50 = getelementptr inbounds nuw i8, ptr %.val, i64 200
  %51 = load ptr, ptr %50, align 8
  %52 = tail call i32 %51() #10
  %.not6.i = icmp eq i32 %52, 0
  br i1 %.not6.i, label %GL_CheckAllErrors.exit, label %.lr.ph.i

.lr.ph.i:                                         ; preds = %.preheader.i, %58
  %53 = phi i32 [ %61, %58 ], [ %52, %.preheader.i ]
  %.0167.i = phi ptr [ %spec.select, %58 ], [ @.str.5, %.preheader.i ]
  %54 = load i8, ptr %.0167.i, align 1
  %55 = icmp eq i8 %54, 0
  %spec.select = select i1 %55, ptr @.str.101, ptr %.0167.i
  %switch.tableidx = add i32 %53, -1280
  %56 = icmp ult i32 %switch.tableidx, 6
  br i1 %56, label %switch.lookup, label %58

switch.lookup:                                    ; preds = %.lr.ph.i
  %57 = zext nneg i32 %switch.tableidx to i64
  %switch.gep = getelementptr inbounds nuw [6 x ptr], ptr @switch.table.GL_CheckAllErrors, i64 0, i64 %57
  %switch.load = load ptr, ptr %switch.gep, align 8
  br label %58

58:                                               ; preds = %.lr.ph.i, %switch.lookup
  %.0.i.i = phi ptr [ %switch.load, %switch.lookup ], [ @.str.108, %.lr.ph.i ]
  %59 = tail call zeroext i1 (ptr, ...) @SDL_SetError_REAL(ptr noundef nonnull @.str.102, ptr noundef nonnull %spec.select, ptr noundef nonnull @.str.6, i32 noundef 1578, ptr noundef nonnull @__func__.GLES2_DestroyRenderer, ptr noundef nonnull %.0.i.i, i32 noundef %53) #10
  %60 = load ptr, ptr %50, align 8
  %61 = tail call i32 %60() #10
  %.not.i36 = icmp eq i32 %61, 0
  br i1 %.not.i36, label %GL_CheckAllErrors.exit, label %.lr.ph.i

GL_CheckAllErrors.exit:                           ; preds = %58, %41, %.preheader.i
  %62 = load ptr, ptr %38, align 8
  tail call void @SDL_free_REAL(ptr noundef %62) #10
  store ptr %44, ptr %38, align 8
  %.not33 = icmp eq ptr %44, null
  br i1 %.not33, label %._crit_edge42.loopexit, label %41, !llvm.loop !17

._crit_edge42.loopexit:                           ; preds = %GL_CheckAllErrors.exit
  %.pre = load ptr, ptr %3, align 8
  br label %._crit_edge42

._crit_edge42:                                    ; preds = %._crit_edge42.loopexit, %.preheader
  %63 = phi ptr [ %.pre, %._crit_edge42.loopexit ], [ %37, %.preheader ]
  %64 = tail call zeroext i1 @SDL_GL_DestroyContext_REAL(ptr noundef %63) #10
  br label %65

65:                                               ; preds = %._crit_edge42, %._crit_edge
  tail call void @SDL_free_REAL(ptr noundef nonnull %3) #10
  br label %66

66:                                               ; preds = %65, %1
  ret void
}